; Function Attrs: mustprogress uwtable
define void @_ZN9grpc_core10PeerString12DisplayValueB5cxx11ERKNS_5SliceE(ptr noalias sret(%"class.std::__cxx11::basic_string") align 8 %agg.result, ptr noundef nonnull align 8 dereferenceable(32) %x) local_unnamed_addr #3 align 2 personality ptr @__gxx_personality_v0 {
entry:
  %agg.tmp.i = alloca %"struct.std::__cxx11::basic_string<char>::__sv_wrapper", align 8
  %ref.tmp1 = alloca %"class.std::allocator", align 1
  %0 = load ptr, ptr %x, align 8
  %tobool.not.i.i = icmp eq ptr %0, null
  %bytes.i.i = getelementptr inbounds i8, ptr %x, i64 16
  %1 = load ptr, ptr %bytes.i.i, align 8
  %bytes5.i.i = getelementptr inbounds i8, ptr %x, i64 9
  %cond.i.i = select i1 %tobool.not.i.i, ptr %bytes5.i.i, ptr %1
  %data.i.i = getelementptr inbounds i8, ptr %x, i64 8
  %2 = load i64, ptr %data.i.i, align 8
  %conv.i.i = and i64 %2, 255
  %cond.i2.i = select i1 %tobool.not.i.i, i64 %conv.i.i, i64 %2
  call void @_ZNSaIcEC1Ev(ptr noundef nonnull align 1 dereferenceable(1) %ref.tmp1) #18
  call void @llvm.lifetime.start.p0(i64 16, ptr nonnull %agg.tmp.i)
  %call.i = call { i64, ptr } @_ZNSt7__cxx1112basic_stringIcSt11char_traitsIcESaIcEE17_S_to_string_viewESt17basic_string_viewIcS2_E(i64 %cond.i2.i, ptr %cond.i.i) #18
  %3 = extractvalue { i64, ptr } %call.i, 0
  %4 = extractvalue { i64, ptr } %call.i, 1
  call void @_ZNSt7__cxx1112basic_stringIcSt11char_traitsIcESaIcEE12__sv_wrapperC1ESt17basic_string_viewIcS2_E(ptr noundef nonnull align 8 dereferenceable(16) %agg.tmp.i, i64 %3, ptr %4) #18
  %5 = load i64, ptr %agg.tmp.i, align 8
  %6 = getelementptr inbounds i8, ptr %agg.tmp.i, i64 8
  %7 = load ptr, ptr %6, align 8
  invoke void @_ZNSt7__cxx1112basic_stringIcSt11char_traitsIcESaIcEEC2ENS4_12__sv_wrapperERKS3_(ptr noundef nonnull align 8 dereferenceable(32) %agg.result, i64 %5, ptr %7, ptr noundef nonnull align 1 dereferenceable(1) %ref.tmp1)
          to label %invoke.cont unwind label %lpad

invoke.cont:                                      ; preds = %entry
  call void @llvm.lifetime.end.p0(i64 16, ptr nonnull %agg.tmp.i)
  call void @_ZNSaIcED1Ev(ptr noundef nonnull align 1 dereferenceable(1) %ref.tmp1) #18
  ret void

lpad:                                             ; preds = %entry
  %8 = landingpad { ptr, i32 }
          cleanup
  call void @_ZNSaIcED1Ev(ptr noundef nonnull align 1 dereferenceable(1) %ref.tmp1) #18
  resume { ptr, i32 } %8
}